target datalayout = "e-m:e-p270:32:32-p271:32:32-p272:64:64-i64:64-i128:128-f80:128-n8:16:32:64-S128"
target triple = "x86_64-pc-linux-gnu"

%"class.std::basic_istream" = type { ptr, i64, %"class.std::basic_ios" }
%"class.std::basic_ios" = type { %"class.std::ios_base", ptr, i8, i8, ptr, ptr, ptr, ptr }
%"class.std::ios_base" = type { ptr, i64, i64, i32, i32, i32, ptr, %"struct.std::ios_base::_Words", [8 x %"struct.std::ios_base::_Words"], i32, ptr, %"class.std::locale" }
%"struct.std::ios_base::_Words" = type { ptr, i64 }
%"class.std::locale" = type { ptr }
%"class.std::basic_ostream" = type { ptr, %"class.std::basic_ios" }
%class.V3LexerBase = type <{ %class.FlexLexer.base, i32, i32, [4 x i8], ptr, %"class.std::basic_istream", %"class.std::basic_ostream", i8, [3 x i8], i32, ptr, i32, i32, i32, [4 x i8], i64, i64, ptr, i32, [4 x i8], ptr, ptr, ptr, ptr, ptr, i32, i32, i32, i32, i32, i32, i32, [4 x i8] }>
%class.FlexLexer.base = type <{ ptr, ptr, i32, i32, i32 }>
%class.FlexLexer = type <{ ptr, ptr, i32, i32, i32, [4 x i8] }>

; Function Attrs: mustprogress nounwind uwtable
define dso_local void @_ZN11V3LexerBase11ctor_commonEv(ptr noundef nonnull align 8 dereferenceable(732) %0) #4 align 2 {
  %2 = alloca ptr, align 8
  store ptr %0, ptr %2, align 8
  %3 = load ptr, ptr %2, align 8
  %4 = getelementptr inbounds %class.V3LexerBase, ptr %3, i32 0, i32 10
  store ptr null, ptr %4, align 8
  %5 = getelementptr inbounds %class.V3LexerBase, ptr %3, i32 0, i32 11
  store i32 0, ptr %5, align 8
  %6 = getelementptr inbounds %class.V3LexerBase, ptr %3, i32 0, i32 12
  store i32 0, ptr %6, align 4
  %7 = getelementptr inbounds %class.FlexLexer, ptr %3, i32 0, i32 4
  store i32 0, ptr %7, align 8
  %8 = getelementptr inbounds %class.FlexLexer, ptr %3, i32 0, i32 3
  store i32 1, ptr %8, align 4
  %9 = getelementptr inbounds %class.V3LexerBase, ptr %3, i32 0, i32 13
  store i32 0, ptr %9, align 8
  %10 = getelementptr inbounds %class.V3LexerBase, ptr %3, i32 0, i32 27
  store i32 0, ptr %10, align 8
  %11 = getelementptr inbounds %class.V3LexerBase, ptr %3, i32 0, i32 28
  store i32 0, ptr %11, align 4
  %12 = getelementptr inbounds %class.V3LexerBase, ptr %3, i32 0, i32 29
  store i32 0, ptr %12, align 8
  %13 = getelementptr inbounds %class.V3LexerBase, ptr %3, i32 0, i32 31
  store i32 0, ptr %13, align 8
  %14 = getelementptr inbounds %class.V3LexerBase, ptr %3, i32 0, i32 30
  store i32 0, ptr %14, align 4
  %15 = getelementptr inbounds %class.V3LexerBase, ptr %3, i32 0, i32 2
  store i32 0, ptr %15, align 8
  %16 = getelementptr inbounds %class.V3LexerBase, ptr %3, i32 0, i32 1
  store i32 0, ptr %16, align 4
  %17 = getelementptr inbounds %class.V3LexerBase, ptr %3, i32 0, i32 4
  store ptr null, ptr %17, align 8
  %18 = getelementptr inbounds %class.V3LexerBase, ptr %3, i32 0, i32 17
  store ptr null, ptr %18, align 8
  %19 = getelementptr inbounds %class.V3LexerBase, ptr %3, i32 0, i32 15
  store i64 0, ptr %19, align 8
  %20 = getelementptr inbounds %class.V3LexerBase, ptr %3, i32 0, i32 16
  store i64 0, ptr %20, align 8
  %21 = getelementptr inbounds %class.V3LexerBase, ptr %3, i32 0, i32 21
  store ptr null, ptr %21, align 8
  ret void
}