; Function Attrs: mustprogress nofree norecurse nosync nounwind willreturn memory(argmem: write) uwtable
define dso_local void @_ZN11V3LexerBase11ctor_commonEv(ptr nocapture noundef nonnull writeonly align 8 dereferenceable(732) %0) local_unnamed_addr #7 align 2 {
  %2 = getelementptr inbounds i8, ptr %0, i64 608
  %3 = getelementptr inbounds i8, ptr %0, i64 20
  tail call void @llvm.memset.p0.i64(ptr noundef nonnull align 8 dereferenceable(16) %2, i8 0, i64 16, i1 false)
  %4 = getelementptr inbounds i8, ptr %0, i64 624
  store i32 0, ptr %4, align 8
  %5 = getelementptr inbounds i8, ptr %0, i64 712
  store <4 x i32> <i32 1, i32 0, i32 0, i32 0>, ptr %3, align 4
  %6 = getelementptr inbounds i8, ptr %0, i64 40
  store ptr null, ptr %6, align 8
  %7 = getelementptr inbounds i8, ptr %0, i64 632
  %8 = getelementptr inbounds i8, ptr %0, i64 672
  store ptr null, ptr %8, align 8
  tail call void @llvm.memset.p0.i64(ptr noundef nonnull align 8 dereferenceable(24) %7, i8 0, i64 24, i1 false)
  tail call void @llvm.memset.p0.i64(ptr noundef nonnull align 8 dereferenceable(20) %5, i8 0, i64 20, i1 false)
  ret void
}